; Function Attrs: mustprogress nofree norecurse nosync nounwind willreturn memory(argmem: read) uwtable
define hidden float @b2GetRevoluteJointTorque(ptr noundef readonly captures(none) %0, ptr noundef readonly captures(none) %1) local_unnamed_addr #5 {
  %3 = getelementptr inbounds nuw i8, ptr %0, i64 1768
  %4 = load float, ptr %3, align 8, !tbaa !14
  %5 = getelementptr inbounds nuw i8, ptr %1, i64 60
  %6 = load float, ptr %5, align 4, !tbaa !65
  %7 = getelementptr inbounds nuw i8, ptr %1, i64 64
  %8 = load float, ptr %7, align 4, !tbaa !68
  %9 = fadd float %6, %8
  %10 = getelementptr inbounds nuw i8, ptr %1, i64 68
  %11 = load float, ptr %10, align 4, !tbaa !69
  %12 = fsub float %9, %11
  %13 = fmul float %4, %12
  ret float %13
}